target datalayout = "e-m:e-p270:32:32-p271:32:32-p272:64:64-i64:64-i128:128-f80:128-n8:16:32:64-S128"
target triple = "x86_64-pc-linux-gnu"

%struct.X509_name_st = type { ptr, i32, ptr, ptr, i32 }

; Function Attrs: nounwind uwtable
define hidden ptr @X509_NAME_get_entry(ptr noundef %0, i32 noundef %1) #0 {
  %3 = alloca ptr, align 8
  %4 = alloca ptr, align 8
  %5 = alloca i32, align 4
  store ptr %0, ptr %4, align 8, !tbaa !6
  store i32 %1, ptr %5, align 4, !tbaa !11
  %6 = load ptr, ptr %4, align 8, !tbaa !6
  %7 = icmp eq ptr %6, null
  br i1 %7, label %19, label %8

8:                                                ; preds = %2
  %9 = load i32, ptr %5, align 4, !tbaa !11
  %10 = icmp slt i32 %9, 0
  br i1 %10, label %19, label %11

11:                                               ; preds = %8
  %12 = load ptr, ptr %4, align 8, !tbaa !6
  %13 = getelementptr inbounds nuw %struct.X509_name_st, ptr %12, i32 0, i32 0
  %14 = load ptr, ptr %13, align 8, !tbaa !24
  %15 = call i64 @sk_num(ptr noundef %14)
  %16 = load i32, ptr %5, align 4, !tbaa !11
  %17 = sext i32 %16 to i64
  %18 = icmp ule i64 %15, %17
  br i1 %18, label %19, label %20

19:                                               ; preds = %11, %8, %2
  store ptr null, ptr %3, align 8
  br label %27

20:                                               ; preds = %11
  %21 = load ptr, ptr %4, align 8, !tbaa !6
  %22 = getelementptr inbounds nuw %struct.X509_name_st, ptr %21, i32 0, i32 0
  %23 = load ptr, ptr %22, align 8, !tbaa !24
  %24 = load i32, ptr %5, align 4, !tbaa !11
  %25 = sext i32 %24 to i64
  %26 = call ptr @sk_value(ptr noundef %23, i64 noundef %25)
  store ptr %26, ptr %3, align 8
  br label %27

27:                                               ; preds = %20, %19
  %28 = load ptr, ptr %3, align 8
  ret ptr %28
}