; Function Attrs: nounwind uwtable
define hidden ptr @X509_NAME_get_entry(ptr noundef readonly captures(address_is_null) %0, i32 noundef %1) local_unnamed_addr #0 {
  %3 = icmp eq ptr %0, null
  %4 = icmp slt i32 %1, 0
  %or.cond = or i1 %3, %4
  br i1 %or.cond, label %12, label %5

5:                                                ; preds = %2
  %6 = load ptr, ptr %0, align 8, !tbaa !6
  %7 = tail call i64 @sk_num(ptr noundef %6) #7
  %8 = zext nneg i32 %1 to i64
  %.not = icmp ugt i64 %7, %8
  br i1 %.not, label %9, label %12

9:                                                ; preds = %5
  %10 = load ptr, ptr %0, align 8, !tbaa !6
  %11 = tail call ptr @sk_value(ptr noundef %10, i64 noundef %8) #7
  br label %12

12:                                               ; preds = %2, %5, %9
  %.0 = phi ptr [ %11, %9 ], [ null, %5 ], [ null, %2 ]
  ret ptr %.0
}